; Function Attrs: nounwind sspstrong uwtable
define dso_local ptr @qemu_chr_find(ptr noundef %name) local_unnamed_addr #0 {
entry:
  %call.i = tail call ptr @object_get_root() #13
  %call1.i = tail call ptr @container_get(ptr noundef %call.i, ptr noundef nonnull @.str) #13
  %call1 = tail call ptr @object_resolve_path_component(ptr noundef %call1.i, ptr noundef %name) #13
  %tobool.not = icmp eq ptr %call1, null
  br i1 %tobool.not, label %cond.end, label %cond.true

cond.true:                                        ; preds = %entry
  %call.i2 = tail call ptr @object_dynamic_cast_assert(ptr noundef nonnull %call1, ptr noundef nonnull @.str.4, ptr noundef nonnull @.str.104, i32 noundef 231, ptr noundef nonnull @__func__.CHARDEV) #13
  br label %cond.end

cond.end:                                         ; preds = %entry, %cond.true
  %cond = phi ptr [ %call.i2, %cond.true ], [ null, %entry ]
  ret ptr %cond
}